Certificate:
    Data:
        Version: 3 (0x2)
        Serial Number: 4097 (0x1001)
    Signature Algorithm: md5WithRSAEncryption
        Issuer: C=US, ST=Utah, L=Salt Lake City, O=tipstein, CN=clientVlad
        Validity
            Not Before: Apr  1 19:42:41 2022 GMT
            Not After : Apr  1 19:42:41 2023 GMT
        Subject: C=US, ST=Utah, O=tipstein, CN=clientHarker
        Subject Public Key Info:
            Public Key Algorithm: rsaEncryption
                Public-Key: (4096 bit)
                Modulus:
                    00:d4:e8:57:02:5e:1c:2c:91:23:ee:ba:90:b3:90:
                    d1:16:c4:80:18:42:8f:93:3d:3f:4c:fe:c2:4e:8c:
                    de:27:f2:e7:33:15:7b:3b:3d:d0:bf:ba:79:e0:7a:
                    1c:8d:97:68:d0:93:9a:5e:05:e5:e7:8f:30:e9:ff:
                    ce:13:31:d0:1c:bf:0f:3c:d6:07:61:86:6d:2e:c3:
                    a3:be:09:84:31:69:f4:1f:69:92:70:58:0e:35:4a:
                    f9:73:05:33:2e:97:eb:1b:55:20:b2:03:af:a5:84:
                    59:88:68:5d:e3:1e:b2:6c:e1:86:f9:01:f3:90:1c:
                    4d:40:74:93:26:c9:28:36:08:61:0d:ac:89:e6:44:
                    d5:76:c2:44:e6:06:72:83:96:e9:d4:da:ac:08:55:
                    11:95:e4:00:1f:90:f4:b9:af:34:8e:31:88:a5:bb:
                    d7:ca:80:ee:4b:0d:85:6f:05:2b:22:90:8f:85:6e:
                    66:a6:b3:03:84:1a:dd:27:50:6f:8d:0e:91:af:9a:
                    b0:29:78:61:b4:b7:34:67:15:f1:3b:2d:b8:9e:87:
                    8c:03:bd:fa:86:33:66:e7:d9:da:5f:15:b1:1a:e4:
                    f6:d1:e8:2e:3d:b9:99:4a:91:89:00:3a:01:7e:da:
                    86:2d:ea:00:d4:ef:0d:50:7a:8d:2a:50:78:48:ca:
                    60:46:49:b8:b6:1b:37:65:11:1c:17:06:a4:c2:92:
                    4d:98:e8:0c:d3:42:f2:3a:e7:23:ab:44:98:d9:61:
                    0f:34:95:92:a2:ee:42:38:f4:a0:d0:6b:4d:77:87:
                    ab:16:28:94:d1:a8:19:9b:80:64:e2:ff:bb:d1:c7:
                    f3:91:43:0a:23:1b:21:0e:99:b4:a8:82:49:6d:43:
                    1c:58:42:a3:d7:13:d2:31:cd:9f:f4:59:2a:96:8e:
                    c5:fa:c4:35:4c:cd:5e:f2:de:57:26:15:df:83:6b:
                    d2:1b:6b:19:fe:99:11:71:56:de:cf:d1:17:46:16:
                    95:8a:7a:44:f9:39:90:0c:39:5c:1e:fc:16:32:2a:
                    96:c3:6d:9b:bb:cf:05:09:90:f2:bf:ad:eb:01:e9:
                    1a:61:c5:5b:9d:bd:d9:1b:ec:2e:ca:21:ef:2a:dd:
                    2f:3a:3e:25:b3:15:ad:73:25:15:1a:4d:72:7b:9a:
                    e4:db:a1:39:d6:6f:d1:c1:13:59:9e:3d:38:f7:a5:
                    66:08:29:b9:69:87:9b:8d:56:b9:59:69:9c:1c:56:
                    cc:39:0b:2d:2e:5b:83:3f:79:7b:e8:e9:6d:51:c1:
                    ab:c1:b3:9a:95:a8:b6:8e:03:a1:b8:bd:20:be:e8:
                    b8:56:17:de:67:9f:5f:83:64:99:49:f6:66:49:9e:
                    10:6d:7f
                Exponent: 65537 (0x10001)
        X509v3 extensions:
            X509v3 Basic Constraints: 
                CA:FALSE
            Netscape Comment: 
                OpenSSL Generated Certificate
            X509v3 Subject Key Identifier: 
                9D:3E:48:94:D1:08:C3:C3:F9:E2:38:68:10:B4:F8:34:E9:CA:07:A2
            X509v3 Authority Key Identifier: 
                DirName:/C=US/ST=Utah/L=Salt Lake City/O=tipstein/CN=clientVlad
                serial:BB:D9:87:7B:49:C1:23:85

    Signature Algorithm: md5WithRSAEncryption
         6d:cc:7d:55:af:7f:db:d8:55:31:8f:81:62:91:c5:4d:21:5d:
         17:eb:b4:df:55:6d:29:89:c8:22:2e:ae:1c:f7:15:a6:72:e2:
         8c:31:db:e3:05:14:01:e6:03:99:f1:d6:a8:9d:07:51:48:a4:
         b8:be:bf:6d:ad:e6:fe:75:f0:79:91:65:ae:50:35:95:ae:f2:
         18:71:f3:0c:48:44:3d:db:d2:a6:93:88:1e:27:01:f9:3a:01:
         38:79:57:27:e6:db:c9:42:59:7f:e9:af:41:b4:17:ef:07:87:
         bf:bc:33:39:9d:12:3f:e4:10:bd:33:8e:f9:23:b0:b9:6f:bb:
         92:ff:51:6e:13:c5:43:af:54:3c:21:ef:48:2c:a9:e9:e0:d8:
         e0:70:31:7f:a0:ef:e7:e6:27:f2:e5:f3:52:a6:61:f5:e0:ea:
         eb:44:89:0c:1b:82:23:18:61:fd:93:19:50:e2:97:0c:54:36:
         a1:4a:d3:f4:a4:8f:c1:d1:f7:2f:9a:b2:b7:58:4f:99:ed:dd:
         bc:80:cf:bd:2a:69:e1:fc:e6:bc:6f:03:0f:23:af:0e:90:ab:
         52:01:44:57:a3:6d:2d:96:b8:78:5c:9e:49:8b:ea:f3:98:be:
         ad:e0:05:f5:c9:b5:a5:c9:30:30:7f:37:e5:ae:79:77:07:ae:
         2c:84:40:5a:00:05:f0:a4:96:75:7a:ff:ad:d7:ff:35:b8:a7:
         ef:15:38:fd:15:26:69:f4:dc:d3:58:1a:6a:9a:d9:77:22:1b:
         34:fb:6b:70:8a:81:5a:a6:5d:be:ef:0f:ed:eb:3e:24:35:f7:
         c3:1d:ca:10:b9:27:e1:fa:08:ef:2a:e2:69:19:eb:c1:6d:bc:
         6d:9b:e2:00:f9:be:42:b0:a1:3f:3d:99:f7:71:37:14:b9:d7:
         e9:e9:1b:6c:0d:ce:2a:85:5f:85:e2:fb:e7:e0:1d:42:ed:4a:
         07:89:0a:08:ae:f9:f3:52:c0:27:ef:26:44:a6:97:dc:91:0e:
         e6:7c:c4:b4:b6:d0:97:40:93:9c:d1:0f:a5:a0:7c:9d:5b:76:
         92:47:35:59:9d:5b:18:1c:ad:85:9f:0a:35:a2:bf:09:ea:9d:
         82:43:58:35:b2:7e:63:b1:30:c0:a9:e5:d4:d5:eb:58:23:03:
         fc:f8:58:92:e2:90:fd:49:e9:e1:ef:3d:3f:48:5f:85:47:8d:
         41:bd:99:f3:4a:ae:22:a2:6a:1b:d9:cc:9a:8b:1b:08:40:24:
         58:ca:76:60:91:7a:63:33:8c:1b:ae:88:e0:52:e6:b0:70:5f:
         f4:c1:6b:c1:93:d9:45:81:5c:ab:48:9a:91:3f:8c:22:18:2f:
         37:71:b7:a1:e8:b6:ab:7b
-----BEGIN CERTIFICATE-----
MIIF9DCCA9ygAwIBAgICEAEwDQYJKoZIhvcNAQEEBQAwXTELMAkGA1UEBhMCVVMx
DTALBgNVBAgMBFV0YWgxFzAVBgNVBAcMDlNhbHQgTGFrZSBDaXR5MREwDwYDVQQK
DAh0aXBzdGVpbjETMBEGA1UEAwwKY2xpZW50VmxhZDAeFw0yMjA0MDExOTQyNDFa
Fw0yMzA0MDExOTQyNDFaMEYxCzAJBgNVBAYTAlVTMQ0wCwYDVQQIDARVdGFoMREw
DwYDVQQKDAh0aXBzdGVpbjEVMBMGA1UEAwwMY2xpZW50SGFya2VyMIICIjANBgkq
hkiG9w0BAQEFAAOCAg8AMIICCgKCAgEA1OhXAl4cLJEj7rqQs5DRFsSAGEKPkz0/
TP7CTozeJ/LnMxV7Oz3Qv7p54HocjZdo0JOaXgXl548w6f/OEzHQHL8PPNYHYYZt
LsOjvgmEMWn0H2mScFgONUr5cwUzLpfrG1UgsgOvpYRZiGhd4x6ybOGG+QHzkBxN
QHSTJskoNghhDayJ5kTVdsJE5gZyg5bp1NqsCFURleQAH5D0ua80jjGIpbvXyoDu
Sw2FbwUrIpCPhW5mprMDhBrdJ1BvjQ6Rr5qwKXhhtLc0ZxXxOy24noeMA736hjNm
59naXxWxGuT20eguPbmZSpGJADoBftqGLeoA1O8NUHqNKlB4SMpgRkm4ths3ZREc
FwakwpJNmOgM00LyOucjq0SY2WEPNJWSou5COPSg0GtNd4erFiiU0agZm4Bk4v+7
0cfzkUMKIxshDpm0qIJJbUMcWEKj1xPSMc2f9Fkqlo7F+sQ1TM1e8t5XJhXfg2vS
G2sZ/pkRcVbez9EXRhaVinpE+TmQDDlcHvwWMiqWw22bu88FCZDyv63rAekaYcVb
nb3ZG+wuyiHvKt0vOj4lsxWtcyUVGk1ye5rk26E51m/RwRNZnj0496VmCCm5aYeb
jVa5WWmcHFbMOQstLluDP3l76OltUcGrwbOalai2jgOhuL0gvui4VhfeZ59fg2SZ
SfZmSZ4QbX8CAwEAAaOB1DCB0TAJBgNVHRMEAjAAMCwGCWCGSAGG+EIBDQQfFh1P
cGVuU1NMIEdlbmVyYXRlZCBDZXJ0aWZpY2F0ZTAdBgNVHQ4EFgQUnT5IlNEIw8P5
4jhoELT4NOnKB6IwdwYDVR0jBHAwbqFhpF8wXTELMAkGA1UEBhMCVVMxDTALBgNV
BAgMBFV0YWgxFzAVBgNVBAcMDlNhbHQgTGFrZSBDaXR5MREwDwYDVQQKDAh0aXBz
dGVpbjETMBEGA1UEAwwKY2xpZW50VmxhZIIJALvZh3tJwSOFMA0GCSqGSIb3DQEB
BAUAA4ICAQBtzH1Vr3/b2FUxj4FikcVNIV0X67TfVW0picgiLq4c9xWmcuKMMdvj
BRQB5gOZ8daonQdRSKS4vr9treb+dfB5kWWuUDWVrvIYcfMMSEQ929Kmk4geJwH5
OgE4eVcn5tvJQll/6a9BtBfvB4e/vDM5nRI/5BC9M475I7C5b7uS/1FuE8VDr1Q8
Ie9ILKnp4NjgcDF/oO/n5ify5fNSpmH14OrrRIkMG4IjGGH9kxlQ4pcMVDahStP0
pI/B0fcvmrK3WE+Z7d28gM+9Kmnh/Oa8bwMPI68OkKtSAURXo20tlrh4XJ5Ji+rz
mL6t4AX1ybWlyTAwfzflrnl3B64shEBaAAXwpJZ1ev+t1/81uKfvFTj9FSZp9NzT
WBpqmtl3Ihs0+2twioFapl2+7w/t6z4kNffDHcoQuSfh+gjvKuJpGevBbbxtm+IA
+b5CsKE/PZn3cTcUudfp6RtsDc4qhV+F4vvn4B1C7UoHiQoIrvnzUsAn7yZEppfc
kQ7mfMS0ttCXQJOc0Q+loHydW3aSRzVZnVsYHK2Fnwo1or8J6p2CQ1g1sn5jsTDA
qeXU1etYIwP8+FiS4pD9Senh7z0/SF+FR41BvZnzSq4iomob2cyaixsIQCRYynZg
kXpjM4wbrojgUuawcF/0wWvBk9lFgVyrSJqRP4wiGC83cbeh6Larew==
-----END CERTIFICATE-----
