Certificate:
    Data:
        Version: 3 (0x2)
        Serial Number: 4096 (0x1000)
    Signature Algorithm: md5WithRSAEncryption
        Issuer: C=US, ST=Utah, L=Salt Lake City, O=tipstein, CN=privateVlad
        Validity
            Not Before: Apr  1 19:24:03 2022 GMT
            Not After : Apr  1 19:24:03 2023 GMT
        Subject: C=US, ST=Utah, O=tipstein, CN=serverDracula
        Subject Public Key Info:
            Public Key Algorithm: rsaEncryption
                Public-Key: (4096 bit)
                Modulus:
                    00:bd:4b:31:d1:42:ca:4a:18:a4:a0:6c:c3:4e:b9:
                    bf:94:8f:86:81:23:96:e4:ed:54:8d:6e:b3:4b:45:
                    b7:b6:8a:55:4a:4d:9b:4c:77:7a:6b:d0:f9:61:c9:
                    19:72:aa:10:b8:b3:59:f1:b5:f7:dd:6f:44:09:ec:
                    c0:00:f7:e2:e4:e2:4f:3d:2d:a7:c7:89:47:0f:0d:
                    39:24:bd:e2:81:62:d3:62:2a:a4:33:a4:49:2c:a9:
                    ed:24:b5:c7:03:c1:02:97:6c:d0:e9:4d:f4:09:3c:
                    9b:b2:97:57:54:da:3b:ab:5a:f3:a5:a6:cb:db:5f:
                    38:51:27:b7:07:28:fd:4c:c8:15:61:6f:1c:b8:85:
                    a8:60:51:d3:f9:20:17:d3:d0:45:ca:7c:f5:1b:e0:
                    3e:b5:03:a1:fe:4a:21:b6:d6:fc:57:94:bb:6d:ea:
                    12:61:a3:c2:95:e1:6b:42:15:d4:6f:7a:0c:e6:d4:
                    9d:99:7d:8d:72:ad:b2:0c:ec:50:f8:39:a3:b1:f6:
                    5a:bf:0e:a6:ad:04:bc:54:2a:02:ef:17:cb:c7:2a:
                    99:05:30:74:74:dd:44:8c:c7:e8:55:95:01:fd:d0:
                    44:dc:f0:3d:2c:d3:c3:01:58:e0:bc:57:73:e4:0f:
                    0f:26:55:01:8b:da:ee:1d:9d:2b:26:03:16:04:a8:
                    c1:de:1f:ec:08:bb:dc:32:c7:55:b4:d9:48:fd:8e:
                    fd:ad:15:e6:63:9b:e0:3d:ff:2f:26:25:a0:e2:1f:
                    8c:d6:fa:cd:6f:cb:bc:5e:3f:6b:b3:e0:17:b0:d5:
                    bb:d3:99:6b:02:57:6b:e8:94:5f:3e:9e:e0:6f:31:
                    6b:a2:54:75:4b:f4:fe:19:2d:5c:6a:cd:a4:b4:f8:
                    ae:d5:82:93:07:2b:e9:9d:63:b0:a7:23:1a:f0:35:
                    8e:bb:c8:96:4b:8b:fc:a8:5c:e8:ee:ce:6c:27:61:
                    36:e5:d7:3a:0d:a8:37:82:de:78:ff:9e:91:40:a4:
                    e2:d4:f8:c7:e6:b5:f0:08:4e:34:e4:0b:0b:a9:77:
                    93:3b:04:d0:3d:e0:b0:57:94:50:e3:50:aa:f0:3a:
                    fc:a5:6c:67:78:8d:2f:57:a7:75:df:99:b7:50:0c:
                    4a:d6:25:d2:89:f8:ba:4b:be:0b:41:28:73:7c:15:
                    f9:a4:04:ff:01:65:0c:8f:2e:f7:9d:27:88:d2:2c:
                    18:e8:c6:5a:10:c2:cf:09:5c:01:43:c8:ac:75:a4:
                    3b:30:cb:df:50:ae:88:b6:32:b5:93:34:0d:aa:ab:
                    eb:ff:e9:d1:8f:13:6d:d9:4a:bf:89:9c:2d:4c:67:
                    cf:ff:92:b8:3e:52:b6:f0:86:28:25:62:b5:34:f7:
                    9f:3c:d7
                Exponent: 65537 (0x10001)
        X509v3 extensions:
            X509v3 Basic Constraints: 
                CA:FALSE
            Netscape Comment: 
                OpenSSL Generated Certificate
            X509v3 Subject Key Identifier: 
                5F:19:57:86:7F:ED:60:F5:78:BE:13:79:FD:9D:F7:8C:B4:83:04:A8
            X509v3 Authority Key Identifier: 
                DirName:/C=US/ST=Utah/L=Salt Lake City/O=tipstein/CN=privateVlad
                serial:BC:B6:8E:BE:DE:03:17:B3

    Signature Algorithm: md5WithRSAEncryption
         8e:78:35:ca:0e:2a:69:ef:b3:46:8c:27:db:97:6e:8c:8a:12:
         c2:76:dc:2f:1f:3a:b2:9f:0d:dd:5b:94:90:a2:51:0b:51:36:
         06:4f:03:13:b3:b8:12:03:58:13:3b:28:77:da:3e:53:20:a1:
         17:5b:5c:9c:03:e9:de:9e:08:87:84:23:d5:bc:e6:2e:83:93:
         21:c5:93:e8:2e:c1:05:17:24:87:18:09:0c:ee:e3:29:2a:df:
         14:7c:7b:ba:0c:3c:bc:81:02:40:ca:c5:0d:8e:fd:5b:9a:56:
         28:e2:90:d5:43:ca:5d:19:14:2d:9b:90:22:f1:00:22:38:a9:
         e1:e5:7b:85:ad:fd:d1:ff:b1:52:f4:9b:5c:78:6c:2f:71:a8:
         ef:5f:9e:49:61:da:e7:ac:0d:23:16:29:08:f7:b2:c1:ca:fa:
         48:95:62:00:00:6a:06:af:cc:ff:94:7b:2c:d7:06:81:08:ed:
         5c:87:d9:33:13:6b:43:0c:e6:c2:df:1e:e1:c2:3c:68:f5:34:
         bb:10:6a:84:52:bb:ba:d2:a1:3f:03:6c:ee:29:88:1e:b4:d2:
         38:75:11:12:9e:df:62:bd:61:2a:38:98:b0:86:39:2e:4d:e2:
         e5:6b:cc:bb:cb:e6:0a:9a:4f:3f:f2:38:e9:51:e8:31:3f:6e:
         15:b2:3d:ae:59:10:5c:92:73:4f:14:c2:4d:0c:7d:0b:9e:35:
         68:a9:a2:98:ca:42:ed:4a:8c:4f:ea:cd:3b:f8:8f:64:0e:d4:
         2b:67:18:68:8a:e9:48:e5:ec:0e:51:41:f4:11:9a:64:b9:1f:
         b0:18:71:ba:c0:e8:a3:d8:ff:4d:e4:1c:3e:32:d1:88:4b:6b:
         73:af:18:c7:7e:81:d0:7b:40:42:c1:b7:f2:a3:6f:f5:3d:45:
         2f:99:1f:6e:3e:f4:f9:e7:3c:4c:eb:43:5d:53:f4:ea:47:3d:
         a7:bc:0f:3d:3d:7b:eb:a2:1c:7c:1f:48:52:fe:6e:91:63:03:
         33:9f:d2:cb:c9:0c:c6:90:cc:12:9c:b5:ee:ab:fb:b2:86:1c:
         d4:eb:3e:be:cf:45:0f:ee:09:00:81:69:35:7e:76:c2:b5:2d:
         5e:a8:3e:02:84:39:b3:37:eb:46:9e:e0:12:32:30:6e:d8:11:
         3a:0d:90:ae:76:72:90:c5:db:53:0e:8a:1e:11:ae:58:30:46:
         49:f6:2a:63:6c:ae:b6:82:a9:db:bd:c0:94:37:e1:7c:e5:a5:
         b8:eb:ee:47:aa:68:d8:19:31:f1:57:13:cc:e9:25:c4:49:c7:
         30:c9:6b:ed:e6:67:e9:94:0a:f8:d2:e7:b9:b0:44:b3:b4:25:
         af:92:4a:ae:a0:ee:fc:1c
-----BEGIN CERTIFICATE-----
MIIF9zCCA9+gAwIBAgICEAAwDQYJKoZIhvcNAQEEBQAwXjELMAkGA1UEBhMCVVMx
DTALBgNVBAgMBFV0YWgxFzAVBgNVBAcMDlNhbHQgTGFrZSBDaXR5MREwDwYDVQQK
DAh0aXBzdGVpbjEUMBIGA1UEAwwLcHJpdmF0ZVZsYWQwHhcNMjIwNDAxMTkyNDAz
WhcNMjMwNDAxMTkyNDAzWjBHMQswCQYDVQQGEwJVUzENMAsGA1UECAwEVXRhaDER
MA8GA1UECgwIdGlwc3RlaW4xFjAUBgNVBAMMDXNlcnZlckRyYWN1bGEwggIiMA0G
CSqGSIb3DQEBAQUAA4ICDwAwggIKAoICAQC9SzHRQspKGKSgbMNOub+Uj4aBI5bk
7VSNbrNLRbe2ilVKTZtMd3pr0PlhyRlyqhC4s1nxtffdb0QJ7MAA9+Lk4k89LafH
iUcPDTkkveKBYtNiKqQzpEksqe0ktccDwQKXbNDpTfQJPJuyl1dU2jurWvOlpsvb
XzhRJ7cHKP1MyBVhbxy4hahgUdP5IBfT0EXKfPUb4D61A6H+SiG21vxXlLtt6hJh
o8KV4WtCFdRvegzm1J2ZfY1yrbIM7FD4OaOx9lq/DqatBLxUKgLvF8vHKpkFMHR0
3USMx+hVlQH90ETc8D0s08MBWOC8V3PkDw8mVQGL2u4dnSsmAxYEqMHeH+wIu9wy
x1W02Uj9jv2tFeZjm+A9/y8mJaDiH4zW+s1vy7xeP2uz4Bew1bvTmWsCV2volF8+
nuBvMWuiVHVL9P4ZLVxqzaS0+K7VgpMHK+mdY7CnIxrwNY67yJZLi/yoXOjuzmwn
YTbl1zoNqDeC3nj/npFApOLU+MfmtfAITjTkCwupd5M7BNA94LBXlFDjUKrwOvyl
bGd4jS9Xp3XfmbdQDErWJdKJ+LpLvgtBKHN8FfmkBP8BZQyPLvedJ4jSLBjoxloQ
ws8JXAFDyKx1pDswy99Qroi2MrWTNA2qq+v/6dGPE23ZSr+JnC1MZ8//krg+Urbw
higlYrU095881wIDAQABo4HVMIHSMAkGA1UdEwQCMAAwLAYJYIZIAYb4QgENBB8W
HU9wZW5TU0wgR2VuZXJhdGVkIENlcnRpZmljYXRlMB0GA1UdDgQWBBRfGVeGf+1g
9Xi+E3n9nfeMtIMEqDB4BgNVHSMEcTBvoWKkYDBeMQswCQYDVQQGEwJVUzENMAsG
A1UECAwEVXRhaDEXMBUGA1UEBwwOU2FsdCBMYWtlIENpdHkxETAPBgNVBAoMCHRp
cHN0ZWluMRQwEgYDVQQDDAtwcml2YXRlVmxhZIIJALy2jr7eAxezMA0GCSqGSIb3
DQEBBAUAA4ICAQCOeDXKDipp77NGjCfbl26MihLCdtwvHzqynw3dW5SQolELUTYG
TwMTs7gSA1gTOyh32j5TIKEXW1ycA+nengiHhCPVvOYug5MhxZPoLsEFFySHGAkM
7uMpKt8UfHu6DDy8gQJAysUNjv1bmlYo4pDVQ8pdGRQtm5Ai8QAiOKnh5XuFrf3R
/7FS9JtceGwvcajvX55JYdrnrA0jFikI97LByvpIlWIAAGoGr8z/lHss1waBCO1c
h9kzE2tDDObC3x7hwjxo9TS7EGqEUru60qE/A2zuKYgetNI4dRESnt9ivWEqOJiw
hjkuTeLla8y7y+YKmk8/8jjpUegxP24Vsj2uWRBcknNPFMJNDH0LnjVoqaKYykLt
SoxP6s07+I9kDtQrZxhoiulI5ewOUUH0EZpkuR+wGHG6wOij2P9N5Bw+MtGIS2tz
rxjHfoHQe0BCwbfyo2/1PUUvmR9uPvT55zxM60NdU/TqRz2nvA89PXvrohx8H0hS
/m6RYwMzn9LLyQzGkMwSnLXuq/uyhhzU6z6+z0UP7gkAgWk1fnbCtS1eqD4ChDmz
N+tGnuASMjBu2BE6DZCudnKQxdtTDooeEa5YMEZJ9ipjbK62gqnbvcCUN+F85aW4
6+5HqmjYGTHxVxPM6SXESccwyWvt5mfplAr40ue5sESztCWvkkquoO78HA==
-----END CERTIFICATE-----
